target datalayout = "e-m:e-p270:32:32-p271:32:32-p272:64:64-i64:64-i128:128-f80:128-n8:16:32:64-S128"
target triple = "x86_64-pc-linux-gnu"

%struct.uv_loop_s = type { ptr, i32, [2 x ptr], %union.anon.2, ptr, i32, i64, i32, [2 x ptr], [2 x ptr], ptr, i32, i32, [2 x ptr], %union.pthread_mutex_t, %struct.uv_async_s, %union.pthread_rwlock_t, ptr, [2 x ptr], [2 x ptr], [2 x ptr], [2 x ptr], [2 x ptr], ptr, %struct.uv__io_s, i32, %struct.anon, i64, i64, [2 x i32], %struct.uv__io_s, %struct.uv_signal_s, i32, %struct.uv__io_s, ptr, i32 }
%union.anon.2 = type { ptr }
%union.pthread_mutex_t = type { %struct.__pthread_mutex_s }
%struct.__pthread_mutex_s = type { i32, i32, i32, i32, i32, i16, i16, %struct.__pthread_internal_list }
%struct.__pthread_internal_list = type { ptr, ptr }
%struct.uv_async_s = type { ptr, ptr, i32, ptr, [2 x ptr], %union.anon.3, ptr, i32, ptr, [2 x ptr], i32 }
%union.anon.3 = type { [4 x ptr] }
%union.pthread_rwlock_t = type { %struct.__pthread_rwlock_arch_t }
%struct.__pthread_rwlock_arch_t = type { i32, i32, i32, i32, i32, i32, i32, i32, i8, [7 x i8], i64, i32 }
%struct.anon = type { ptr, i32 }
%struct.uv_signal_s = type { ptr, ptr, i32, ptr, [2 x ptr], %union.anon.4, ptr, i32, ptr, i32, %struct.anon.5, i32, i32 }
%union.anon.4 = type { [4 x ptr] }
%struct.anon.5 = type { ptr, ptr, ptr, i32 }
%struct.uv__io_s = type { ptr, [2 x ptr], [2 x ptr], i32, i32, i32 }
%struct.uv__loop_internal_fields_s = type { i32, %struct.uv__loop_metrics_s }
%struct.uv__loop_metrics_s = type { i64, i64, %union.pthread_mutex_t }

; Function Attrs: nounwind uwtable
define dso_local void @uv__metrics_set_provider_entry_time(ptr noundef %0) #0 {
  %2 = alloca ptr, align 8
  %3 = alloca ptr, align 8
  %4 = alloca i64, align 8
  %5 = alloca i32, align 4
  store ptr %0, ptr %2, align 8, !tbaa !52
  call void @llvm.lifetime.start.p0(i64 8, ptr %3) #13
  call void @llvm.lifetime.start.p0(i64 8, ptr %4) #13
  %6 = load ptr, ptr %2, align 8, !tbaa !52
  %7 = getelementptr inbounds nuw %struct.uv_loop_s, ptr %6, i32 0, i32 4
  %8 = load ptr, ptr %7, align 8, !tbaa !136
  %9 = getelementptr inbounds nuw %struct.uv__loop_internal_fields_s, ptr %8, i32 0, i32 0
  %10 = load i32, ptr %9, align 8, !tbaa !137
  %11 = and i32 %10, 1
  %12 = icmp ne i32 %11, 0
  br i1 %12, label %14, label %13

13:                                               ; preds = %1
  store i32 1, ptr %5, align 4
  br label %27

14:                                               ; preds = %1
  %15 = call i64 @uv_hrtime()
  store i64 %15, ptr %4, align 8, !tbaa !9
  %16 = load ptr, ptr %2, align 8, !tbaa !52
  %17 = getelementptr inbounds nuw %struct.uv_loop_s, ptr %16, i32 0, i32 4
  %18 = load ptr, ptr %17, align 8, !tbaa !136
  %19 = getelementptr inbounds nuw %struct.uv__loop_internal_fields_s, ptr %18, i32 0, i32 1
  store ptr %19, ptr %3, align 8, !tbaa !140
  %20 = load ptr, ptr %3, align 8, !tbaa !140
  %21 = getelementptr inbounds nuw %struct.uv__loop_metrics_s, ptr %20, i32 0, i32 2
  call void @uv_mutex_lock(ptr noundef %21)
  %22 = load i64, ptr %4, align 8, !tbaa !9
  %23 = load ptr, ptr %3, align 8, !tbaa !140
  %24 = getelementptr inbounds nuw %struct.uv__loop_metrics_s, ptr %23, i32 0, i32 0
  store i64 %22, ptr %24, align 8, !tbaa !142
  %25 = load ptr, ptr %3, align 8, !tbaa !140
  %26 = getelementptr inbounds nuw %struct.uv__loop_metrics_s, ptr %25, i32 0, i32 2
  call void @uv_mutex_unlock(ptr noundef %26)
  store i32 0, ptr %5, align 4
  br label %27

27:                                               ; preds = %14, %13
  call void @llvm.lifetime.end.p0(i64 8, ptr %4) #13
  call void @llvm.lifetime.end.p0(i64 8, ptr %3) #13
  %28 = load i32, ptr %5, align 4
  switch i32 %28, label %30 [
    i32 0, label %29
    i32 1, label %29
  ]

29:                                               ; preds = %27, %27
  ret void

30:                                               ; preds = %27
  unreachable
}